; Function Attrs: mustprogress uwtable
define hidden void @_ZN4cvc58internal6theory17CombinationEngine16postProcessModelEb(ptr noundef nonnull readonly align 8 captures(none) dereferenceable(96) %0, i1 noundef zeroext %1) local_unnamed_addr #4 align 2 {
  %3 = getelementptr inbounds nuw i8, ptr %0, i64 64
  %4 = load ptr, ptr %3, align 8, !tbaa !261
  %5 = load ptr, ptr %4, align 8, !tbaa !3
  %6 = getelementptr inbounds nuw i8, ptr %5, i64 24
  %7 = load ptr, ptr %6, align 8
  tail call void %7(ptr noundef nonnull align 8 dereferenceable(80) %4, i1 noundef zeroext %1)
  %8 = getelementptr inbounds nuw i8, ptr %0, i64 72
  %9 = load ptr, ptr %8, align 8, !tbaa !262
  tail call void @_ZN4cvc58internal6theory12ModelManager16postProcessModelEb(ptr noundef nonnull align 8 dereferenceable(122) %9, i1 noundef zeroext %1)
  ret void
}